; Function Attrs: mustprogress nofree norecurse nosync nounwind willreturn memory(read, argmem: readwrite, inaccessiblemem: none) uwtable
define range(i32 0, 2) i32 @mz_zip_reader_is_file_a_directory(ptr noundef captures(address_is_null) %0, i32 noundef %1) local_unnamed_addr #20 {
  %.not.i20 = icmp eq ptr %0, null
  br i1 %.not.i20, label %mz_zip_set_error.exit, label %3

3:                                                ; preds = %2
  %4 = getelementptr inbounds nuw i8, ptr %0, i64 104
  %5 = load ptr, ptr %4, align 8
  %.not10.i = icmp eq ptr %5, null
  br i1 %.not10.i, label %.thread, label %6

6:                                                ; preds = %3
  %7 = getelementptr inbounds nuw i8, ptr %0, i64 16
  %8 = load i32, ptr %7, align 8
  %.not11.i = icmp ult i32 %1, %8
  br i1 %.not11.i, label %mz_zip_get_cdh.exit, label %.thread

mz_zip_get_cdh.exit:                              ; preds = %6
  %9 = load ptr, ptr %5, align 8
  %10 = getelementptr inbounds nuw i8, ptr %5, i64 32
  %11 = load ptr, ptr %10, align 8
  %12 = zext i32 %1 to i64
  %13 = getelementptr inbounds nuw i32, ptr %11, i64 %12
  %14 = load i32, ptr %13, align 4
  %15 = zext i32 %14 to i64
  %16 = getelementptr inbounds nuw i8, ptr %9, i64 %15
  %.not = icmp eq ptr %9, null
  br i1 %.not, label %.thread, label %18

.thread:                                          ; preds = %3, %6, %mz_zip_get_cdh.exit
  %17 = getelementptr inbounds nuw i8, ptr %0, i64 28
  store i32 24, ptr %17, align 4
  br label %mz_zip_set_error.exit

18:                                               ; preds = %mz_zip_get_cdh.exit
  %19 = getelementptr inbounds nuw i8, ptr %16, i64 28
  %20 = load i8, ptr %19, align 1
  %21 = zext i8 %20 to i32
  %22 = getelementptr inbounds nuw i8, ptr %16, i64 29
  %23 = load i8, ptr %22, align 1
  %24 = zext i8 %23 to i32
  %25 = shl nuw nsw i32 %24, 8
  %26 = or disjoint i32 %25, %21
  %.not18 = icmp eq i32 %26, 0
  br i1 %.not18, label %34, label %27

27:                                               ; preds = %18
  %28 = getelementptr inbounds nuw i8, ptr %16, i64 46
  %29 = zext nneg i32 %26 to i64
  %30 = getelementptr inbounds nuw i8, ptr %28, i64 %29
  %31 = getelementptr inbounds i8, ptr %30, i64 -1
  %32 = load i8, ptr %31, align 1
  %33 = icmp eq i8 %32, 47
  br i1 %33, label %mz_zip_set_error.exit, label %34

34:                                               ; preds = %27, %18
  %35 = getelementptr inbounds nuw i8, ptr %16, i64 38
  %36 = load i8, ptr %35, align 1
  %37 = lshr i8 %36, 4
  %.lobit = and i8 %37, 1
  %. = zext nneg i8 %.lobit to i32
  br label %mz_zip_set_error.exit

mz_zip_set_error.exit:                            ; preds = %.thread, %2, %34, %27
  %.0 = phi i32 [ 1, %27 ], [ %., %34 ], [ 0, %2 ], [ 0, %.thread ]
  ret i32 %.0
}